; Function Attrs: nounwind uwtable
define i32 @phpdbg_get_terminal_height() local_unnamed_addr #3 {
  %1 = alloca %struct.winsize, align 2
  %2 = load ptr, ptr @stdout, align 8
  %3 = tail call i32 @fileno(ptr noundef %2) #25
  %4 = call i32 (i32, i64, ...) @ioctl(i32 noundef %3, i64 noundef 21523, ptr noundef nonnull %1) #25
  %5 = icmp eq i32 %4, 0
  %6 = load i16, ptr %1, align 2
  %7 = zext i16 %6 to i32
  %8 = select i1 %5, i32 %7, i32 40
  ret i32 %8
}